; ModuleID = 'autocfg_d595f63604eb00ad_1.390fd592a93ca7ee-cgu.0'
source_filename = "autocfg_d595f63604eb00ad_1.390fd592a93ca7ee-cgu.0"
target datalayout = "e-m:e-p270:32:32-p271:32:32-p272:64:64-i64:64-i128:128-f80:128-n8:16:32:64-S128"
target triple = "x86_64-unknown-linux-gnu"

%"core::fmt::rt::Argument<'_>" = type { %"core::fmt::rt::ArgumentType<'_>" }
%"core::fmt::rt::ArgumentType<'_>" = type { ptr, [1 x i64] }

@alloc_8df0580a595a87d56789d20c7318e185 = private unnamed_addr constant <{ [166 x i8] }> <{ [166 x i8] c"unsafe precondition(s) violated: ptr::copy_nonoverlapping requires that both pointer arguments are aligned and non-null and the specified memory ranges do not overlap" }>, align 1
@alloc_fad0cd83b7d1858a846a172eb260e593 = private unnamed_addr constant <{ [42 x i8] }> <{ [42 x i8] c"is_aligned_to: align is not a power-of-two" }>, align 1
@alloc_e92e94d0ff530782b571cfd99ec66aef = private unnamed_addr constant <{ ptr, [8 x i8] }> <{ ptr @alloc_fad0cd83b7d1858a846a172eb260e593, [8 x i8] c"*\00\00\00\00\00\00\00" }>, align 8
@0 = private unnamed_addr constant <{ [8 x i8], [8 x i8] }> <{ [8 x i8] zeroinitializer, [8 x i8] undef }>, align 8
@alloc_6a5da29433890857b38b0d29d7c6d4b7 = private unnamed_addr constant <{ [119 x i8] }> <{ [119 x i8] c"/home/spengxu/.rustup/toolchains/stable-x86_64-unknown-linux-gnu/lib/rustlib/src/rust/library/core/src/ptr/const_ptr.rs" }>, align 1
@alloc_a7173021385ef7865d358e067664d79e = private unnamed_addr constant <{ ptr, [16 x i8] }> <{ ptr @alloc_6a5da29433890857b38b0d29d7c6d4b7, [16 x i8] c"w\00\00\00\00\00\00\00C\06\00\00\0D\00\00\00" }>, align 8
@alloc_ab14703751a9eb3585c49b2e55e9a9e5 = private unnamed_addr constant <{ [104 x i8] }> <{ [104 x i8] c"unsafe precondition(s) violated: hint::assert_unchecked must never be called when the condition is false" }>, align 1
@alloc_763310d78c99c2c1ad3f8a9821e942f3 = private unnamed_addr constant <{ [61 x i8] }> <{ [61 x i8] c"is_nonoverlapping: `size_of::<T>() * count` overflows a usize" }>, align 1
@alloc_eab5d04767146d7d9b93b60d28ef530a = private unnamed_addr constant <{ ptr, [8 x i8] }> <{ ptr inttoptr (i64 1 to ptr), [8 x i8] zeroinitializer }>, align 8
@alloc_53973d2fe29b4adba8bb7390b5678745 = private unnamed_addr constant <{ [8 x i8] }> zeroinitializer, align 8

; core::intrinsics::copy_nonoverlapping::precondition_check
; Function Attrs: inlinehint nounwind nonlazybind uwtable
define internal void @_ZN4core10intrinsics19copy_nonoverlapping18precondition_check17hfe4e8ac8acf289a3E(ptr %src, ptr %dst, i64 %size, i64 %align, i64 %count) unnamed_addr #0 personality ptr @rust_eh_personality {
start:
  %0 = alloca [4 x i8], align 4
  %1 = alloca [4 x i8], align 4
  %_23 = alloca [48 x i8], align 8
  %_14 = alloca [48 x i8], align 8
  %_12 = ptrtoint ptr %src to i64
  %2 = icmp eq i64 %_12, 0
  br i1 %2, label %bb8, label %bb9

bb8:                                              ; preds = %start
  br label %bb6

bb9:                                              ; preds = %start
  %3 = call i64 @llvm.ctpop.i64(i64 %align)
  %4 = trunc i64 %3 to i32
  store i32 %4, ptr %1, align 4
  %_15 = load i32, ptr %1, align 4
  %5 = icmp eq i32 %_15, 1
  br i1 %5, label %bb10, label %bb11

bb6:                                              ; preds = %bb10, %bb8
  br label %bb7

bb10:                                             ; preds = %bb9
  %_19 = sub i64 %align, 1
  %_18 = and i64 %_12, %_19
  %_6 = icmp eq i64 %_18, 0
  br i1 %_6, label %bb1, label %bb6

bb11:                                             ; preds = %bb9
  store ptr @alloc_e92e94d0ff530782b571cfd99ec66aef, ptr %_14, align 8
  %6 = getelementptr inbounds i8, ptr %_14, i64 8
  store i64 1, ptr %6, align 8
  %7 = load ptr, ptr @0, align 8
  %8 = load i64, ptr getelementptr inbounds (i8, ptr @0, i64 8), align 8
  %9 = getelementptr inbounds i8, ptr %_14, i64 32
  store ptr %7, ptr %9, align 8
  %10 = getelementptr inbounds i8, ptr %9, i64 8
  store i64 %8, ptr %10, align 8
  %11 = getelementptr inbounds i8, ptr %_14, i64 16
  store ptr inttoptr (i64 8 to ptr), ptr %11, align 8
  %12 = getelementptr inbounds i8, ptr %11, i64 8
  store i64 0, ptr %12, align 8
; invoke core::panicking::panic_fmt
  invoke void @_ZN4core9panicking9panic_fmt17h0c3082644d1bf418E(ptr align 8 %_14, ptr align 8 @alloc_a7173021385ef7865d358e067664d79e) #10
          to label %unreachable unwind label %terminate

bb1:                                              ; preds = %bb10
  %_21 = ptrtoint ptr %dst to i64
  %13 = icmp eq i64 %_21, 0
  br i1 %13, label %bb13, label %bb14

bb7:                                              ; preds = %bb4, %bb5, %bb6
; call core::panicking::panic_nounwind
  call void @_ZN4core9panicking14panic_nounwind17hd0dad372654c389aE(ptr align 1 @alloc_8df0580a595a87d56789d20c7318e185, i64 166) #11
  unreachable

bb13:                                             ; preds = %bb1
  br label %bb5

bb14:                                             ; preds = %bb1
  %14 = call i64 @llvm.ctpop.i64(i64 %align)
  %15 = trunc i64 %14 to i32
  store i32 %15, ptr %0, align 4
  %_24 = load i32, ptr %0, align 4
  %16 = icmp eq i32 %_24, 1
  br i1 %16, label %bb15, label %bb16

bb5:                                              ; preds = %bb15, %bb13
  br label %bb7

bb15:                                             ; preds = %bb14
  %_28 = sub i64 %align, 1
  %_27 = and i64 %_21, %_28
  %_7 = icmp eq i64 %_27, 0
  br i1 %_7, label %bb2, label %bb5

bb16:                                             ; preds = %bb14
  store ptr @alloc_e92e94d0ff530782b571cfd99ec66aef, ptr %_23, align 8
  %17 = getelementptr inbounds i8, ptr %_23, i64 8
  store i64 1, ptr %17, align 8
  %18 = load ptr, ptr @0, align 8
  %19 = load i64, ptr getelementptr inbounds (i8, ptr @0, i64 8), align 8
  %20 = getelementptr inbounds i8, ptr %_23, i64 32
  store ptr %18, ptr %20, align 8
  %21 = getelementptr inbounds i8, ptr %20, i64 8
  store i64 %19, ptr %21, align 8
  %22 = getelementptr inbounds i8, ptr %_23, i64 16
  store ptr inttoptr (i64 8 to ptr), ptr %22, align 8
  %23 = getelementptr inbounds i8, ptr %22, i64 8
  store i64 0, ptr %23, align 8
; invoke core::panicking::panic_fmt
  invoke void @_ZN4core9panicking9panic_fmt17h0c3082644d1bf418E(ptr align 8 %_23, ptr align 8 @alloc_a7173021385ef7865d358e067664d79e) #10
          to label %unreachable unwind label %terminate

bb2:                                              ; preds = %bb15
; invoke core::ub_checks::is_nonoverlapping::runtime
  %_9 = invoke zeroext i1 @_ZN4core9ub_checks17is_nonoverlapping7runtime17h20c88080dd5696daE(ptr %src, ptr %dst, i64 %size, i64 %count)
          to label %bb18 unwind label %terminate

terminate:                                        ; preds = %bb11, %bb16, %bb2
  %24 = landingpad { ptr, i32 }
          filter [0 x ptr] zeroinitializer
  %25 = extractvalue { ptr, i32 } %24, 0
  %26 = extractvalue { ptr, i32 } %24, 1
; call core::panicking::panic_cannot_unwind
  call void @_ZN4core9panicking19panic_cannot_unwind17h65aefd062253eb19E() #12
  unreachable

bb18:                                             ; preds = %bb2
  br i1 %_9, label %bb3, label %bb4

bb4:                                              ; preds = %bb18
  br label %bb7

bb3:                                              ; preds = %bb18
  ret void

unreachable:                                      ; preds = %bb11, %bb16
  unreachable
}

; core::intrinsics::unlikely
; Function Attrs: nounwind nonlazybind uwtable
define internal zeroext i1 @_ZN4core10intrinsics8unlikely17habb23ed096c1a1a2E(i1 zeroext %b) unnamed_addr #1 {
start:
  ret i1 %b
}

; core::fmt::Arguments::new_v1
; Function Attrs: inlinehint nonlazybind uwtable
define void @_ZN4core3fmt9Arguments6new_v117hd27ef3fed51de1fcE(ptr sret([48 x i8]) align 8 %_0, ptr align 8 %pieces, ptr align 8 %args) unnamed_addr #2 {
start:
  store ptr %pieces, ptr %_0, align 8
  %0 = getelementptr inbounds i8, ptr %_0, i64 8
  store i64 1, ptr %0, align 8
  %1 = load ptr, ptr @0, align 8
  %2 = load i64, ptr getelementptr inbounds (i8, ptr @0, i64 8), align 8
  %3 = getelementptr inbounds i8, ptr %_0, i64 32
  store ptr %1, ptr %3, align 8
  %4 = getelementptr inbounds i8, ptr %3, i64 8
  store i64 %2, ptr %4, align 8
  %5 = getelementptr inbounds i8, ptr %_0, i64 16
  store ptr %args, ptr %5, align 8
  %6 = getelementptr inbounds i8, ptr %5, i64 8
  store i64 1, ptr %6, align 8
  ret void
}

; core::ops::function::FnOnce::call_once
; Function Attrs: inlinehint nonlazybind uwtable
define internal void @_ZN4core3ops8function6FnOnce9call_once17h08c5afd5abbaefdeE(ptr sret([24 x i8]) align 8 %_0, ptr align 1 %0, i64 %1) unnamed_addr #2 {
start:
  %_2 = alloca [16 x i8], align 8
  store ptr %0, ptr %_2, align 8
  %2 = getelementptr inbounds i8, ptr %_2, i64 8
  store i64 %1, ptr %2, align 8
  %3 = load ptr, ptr %_2, align 8
  %4 = getelementptr inbounds i8, ptr %_2, i64 8
  %5 = load i64, ptr %4, align 8
; call alloc::str::<impl alloc::borrow::ToOwned for str>::to_owned
  call void @"_ZN5alloc3str56_$LT$impl$u20$alloc..borrow..ToOwned$u20$for$u20$str$GT$8to_owned17h792a83d64f5a681aE"(ptr sret([24 x i8]) align 8 %_0, ptr align 1 %3, i64 %5)
  ret void
}

; core::ptr::drop_in_place<alloc::string::String>
; Function Attrs: nonlazybind uwtable
define void @"_ZN4core3ptr42drop_in_place$LT$alloc..string..String$GT$17h01fe31b560b6a4caE"(ptr align 8 %_1) unnamed_addr #3 {
start:
; call core::ptr::drop_in_place<alloc::vec::Vec<u8>>
  call void @"_ZN4core3ptr46drop_in_place$LT$alloc..vec..Vec$LT$u8$GT$$GT$17h3d4c5e8d86ea1489E"(ptr align 8 %_1)
  ret void
}

; core::ptr::drop_in_place<alloc::vec::Vec<u8>>
; Function Attrs: nonlazybind uwtable
define void @"_ZN4core3ptr46drop_in_place$LT$alloc..vec..Vec$LT$u8$GT$$GT$17h3d4c5e8d86ea1489E"(ptr align 8 %_1) unnamed_addr #3 personality ptr @rust_eh_personality {
start:
  %0 = alloca [16 x i8], align 8
; invoke <alloc::vec::Vec<T,A> as core::ops::drop::Drop>::drop
  invoke void @"_ZN70_$LT$alloc..vec..Vec$LT$T$C$A$GT$$u20$as$u20$core..ops..drop..Drop$GT$4drop17hb8c2272cd6624092E"(ptr align 8 %_1)
          to label %bb4 unwind label %cleanup

bb3:                                              ; preds = %cleanup
; invoke core::ptr::drop_in_place<alloc::raw_vec::RawVec<u8>>
  invoke void @"_ZN4core3ptr53drop_in_place$LT$alloc..raw_vec..RawVec$LT$u8$GT$$GT$17h2d9a9c8b4fc5ad2bE"(ptr align 8 %_1) #13
          to label %bb1 unwind label %terminate

cleanup:                                          ; preds = %start
  %1 = landingpad { ptr, i32 }
          cleanup
  %2 = extractvalue { ptr, i32 } %1, 0
  %3 = extractvalue { ptr, i32 } %1, 1
  store ptr %2, ptr %0, align 8
  %4 = getelementptr inbounds i8, ptr %0, i64 8
  store i32 %3, ptr %4, align 8
  br label %bb3

bb4:                                              ; preds = %start
; call core::ptr::drop_in_place<alloc::raw_vec::RawVec<u8>>
  call void @"_ZN4core3ptr53drop_in_place$LT$alloc..raw_vec..RawVec$LT$u8$GT$$GT$17h2d9a9c8b4fc5ad2bE"(ptr align 8 %_1)
  ret void

terminate:                                        ; preds = %bb3
  %5 = landingpad { ptr, i32 }
          filter [0 x ptr] zeroinitializer
  %6 = extractvalue { ptr, i32 } %5, 0
  %7 = extractvalue { ptr, i32 } %5, 1
; call core::panicking::panic_in_cleanup
  call void @_ZN4core9panicking16panic_in_cleanup17hddc1b09eaad4daa3E() #12
  unreachable

bb1:                                              ; preds = %bb3
  %8 = load ptr, ptr %0, align 8
  %9 = getelementptr inbounds i8, ptr %0, i64 8
  %10 = load i32, ptr %9, align 8
  %11 = insertvalue { ptr, i32 } poison, ptr %8, 0
  %12 = insertvalue { ptr, i32 } %11, i32 %10, 1
  resume { ptr, i32 } %12
}

; core::ptr::drop_in_place<alloc::raw_vec::RawVec<u8>>
; Function Attrs: nonlazybind uwtable
define void @"_ZN4core3ptr53drop_in_place$LT$alloc..raw_vec..RawVec$LT$u8$GT$$GT$17h2d9a9c8b4fc5ad2bE"(ptr align 8 %_1) unnamed_addr #3 {
start:
; call <alloc::raw_vec::RawVec<T,A> as core::ops::drop::Drop>::drop
  call void @"_ZN77_$LT$alloc..raw_vec..RawVec$LT$T$C$A$GT$$u20$as$u20$core..ops..drop..Drop$GT$4drop17h077ee2decf6fd162E"(ptr align 8 %_1)
  ret void
}

; core::hint::assert_unchecked::precondition_check
; Function Attrs: inlinehint nounwind nonlazybind uwtable
define internal void @_ZN4core4hint16assert_unchecked18precondition_check17h46f0938084ff0b9fE(i1 zeroext %cond) unnamed_addr #0 {
start:
  br i1 %cond, label %bb2, label %bb1

bb1:                                              ; preds = %start
; call core::panicking::panic_nounwind
  call void @_ZN4core9panicking14panic_nounwind17hd0dad372654c389aE(ptr align 1 @alloc_ab14703751a9eb3585c49b2e55e9a9e5, i64 104) #11
  unreachable

bb2:                                              ; preds = %start
  ret void
}

; core::option::Option<T>::map_or_else
; Function Attrs: inlinehint nonlazybind uwtable
define void @"_ZN4core6option15Option$LT$T$GT$11map_or_else17hc699dc35bee5d79dE"(ptr sret([24 x i8]) align 8 %_0, ptr align 1 %0, i64 %1, ptr align 8 %default) unnamed_addr #2 personality ptr @rust_eh_personality {
start:
  %2 = alloca [16 x i8], align 8
  %_10 = alloca [1 x i8], align 1
  %_9 = alloca [1 x i8], align 1
  %self = alloca [16 x i8], align 8
  store ptr %0, ptr %self, align 8
  %3 = getelementptr inbounds i8, ptr %self, i64 8
  store i64 %1, ptr %3, align 8
  store i8 1, ptr %_10, align 1
  store i8 1, ptr %_9, align 1
  %4 = load ptr, ptr %self, align 8
  %5 = ptrtoint ptr %4 to i64
  %6 = icmp eq i64 %5, 0
  %_4 = select i1 %6, i64 0, i64 1
  %7 = icmp eq i64 %_4, 0
  br i1 %7, label %bb2, label %bb3

bb2:                                              ; preds = %start
  store i8 0, ptr %_10, align 1
; invoke alloc::fmt::format::{{closure}}
  invoke void @"_ZN5alloc3fmt6format28_$u7b$$u7b$closure$u7d$$u7d$17h12cb662864a68117E"(ptr sret([24 x i8]) align 8 %_0, ptr align 8 %default)
          to label %bb5 unwind label %cleanup

bb3:                                              ; preds = %start
  %t.0 = load ptr, ptr %self, align 8
  %8 = getelementptr inbounds i8, ptr %self, i64 8
  %t.1 = load i64, ptr %8, align 8
  store i8 0, ptr %_9, align 1
; invoke core::ops::function::FnOnce::call_once
  invoke void @_ZN4core3ops8function6FnOnce9call_once17h08c5afd5abbaefdeE(ptr sret([24 x i8]) align 8 %_0, ptr align 1 %t.0, i64 %t.1)
          to label %bb4 unwind label %cleanup

bb11:                                             ; preds = %cleanup
  %9 = load i8, ptr %_9, align 1
  %10 = trunc i8 %9 to i1
  br i1 %10, label %bb10, label %bb7

cleanup:                                          ; preds = %bb3, %bb2
  %11 = landingpad { ptr, i32 }
          cleanup
  %12 = extractvalue { ptr, i32 } %11, 0
  %13 = extractvalue { ptr, i32 } %11, 1
  store ptr %12, ptr %2, align 8
  %14 = getelementptr inbounds i8, ptr %2, i64 8
  store i32 %13, ptr %14, align 8
  br label %bb11

bb5:                                              ; preds = %bb2
  br label %bb6

bb6:                                              ; preds = %bb9, %bb4, %bb5
  ret void

bb4:                                              ; preds = %bb3
  %15 = load i8, ptr %_10, align 1
  %16 = trunc i8 %15 to i1
  br i1 %16, label %bb9, label %bb6

bb9:                                              ; preds = %bb4
  br label %bb6

bb7:                                              ; preds = %bb10, %bb11
  %17 = load i8, ptr %_10, align 1
  %18 = trunc i8 %17 to i1
  br i1 %18, label %bb12, label %bb8

bb10:                                             ; preds = %bb11
  br label %bb7

bb8:                                              ; preds = %bb12, %bb7
  %19 = load ptr, ptr %2, align 8
  %20 = getelementptr inbounds i8, ptr %2, i64 8
  %21 = load i32, ptr %20, align 8
  %22 = insertvalue { ptr, i32 } poison, ptr %19, 0
  %23 = insertvalue { ptr, i32 } %22, i32 %21, 1
  resume { ptr, i32 } %23

bb12:                                             ; preds = %bb7
  br label %bb8

bb1:                                              ; No predecessors!
  unreachable
}

; core::ub_checks::is_nonoverlapping::runtime
; Function Attrs: inlinehint nonlazybind uwtable
define internal zeroext i1 @_ZN4core9ub_checks17is_nonoverlapping7runtime17h20c88080dd5696daE(ptr %src, ptr %dst, i64 %size, i64 %count) unnamed_addr #2 {
start:
  %0 = alloca [1 x i8], align 1
  %diff = alloca [8 x i8], align 8
  %_9 = alloca [16 x i8], align 8
  %src_usize = ptrtoint ptr %src to i64
  %dst_usize = ptrtoint ptr %dst to i64
  %1 = call { i64, i1 } @llvm.umul.with.overflow.i64(i64 %size, i64 %count)
  %_15.0 = extractvalue { i64, i1 } %1, 0
  %_15.1 = extractvalue { i64, i1 } %1, 1
  %2 = zext i1 %_15.1 to i8
  store i8 %2, ptr %0, align 1
  %3 = load i8, ptr %0, align 1
  %_12 = trunc i8 %3 to i1
  br i1 %_12, label %bb2, label %bb3

bb3:                                              ; preds = %start
  %4 = getelementptr inbounds i8, ptr %_9, i64 8
  store i64 %_15.0, ptr %4, align 8
  store i64 1, ptr %_9, align 8
  %5 = getelementptr inbounds i8, ptr %_9, i64 8
  %size1 = load i64, ptr %5, align 8
  %_22 = icmp ult i64 %src_usize, %dst_usize
  br i1 %_22, label %bb4, label %bb5

bb2:                                              ; preds = %start
; call core::panicking::panic_nounwind
  call void @_ZN4core9panicking14panic_nounwind17hd0dad372654c389aE(ptr align 1 @alloc_763310d78c99c2c1ad3f8a9821e942f3, i64 61) #11
  unreachable

bb5:                                              ; preds = %bb3
  %6 = sub i64 %src_usize, %dst_usize
  store i64 %6, ptr %diff, align 8
  br label %bb6

bb4:                                              ; preds = %bb3
  %7 = sub i64 %dst_usize, %src_usize
  store i64 %7, ptr %diff, align 8
  br label %bb6

bb6:                                              ; preds = %bb4, %bb5
  %_11 = load i64, ptr %diff, align 8
  %_0 = icmp uge i64 %_11, %size1
  ret i1 %_0
}

; <T as alloc::slice::hack::ConvertVec>::to_vec
; Function Attrs: inlinehint nonlazybind uwtable
define void @"_ZN52_$LT$T$u20$as$u20$alloc..slice..hack..ConvertVec$GT$6to_vec17h5dcc0e16973d3f70E"(ptr sret([24 x i8]) align 8 %_0, ptr align 1 %s.0, i64 %s.1) unnamed_addr #2 {
start:
  %v = alloca [24 x i8], align 8
; call alloc::raw_vec::RawVecInner<A>::with_capacity_in
  %0 = call { i64, ptr } @"_ZN5alloc7raw_vec20RawVecInner$LT$A$GT$16with_capacity_in17h69f003aa55d182f7E"(i64 %s.1, i64 1, i64 1)
  %_10.0 = extractvalue { i64, ptr } %0, 0
  %_10.1 = extractvalue { i64, ptr } %0, 1
  store i64 %_10.0, ptr %v, align 8
  %1 = getelementptr inbounds i8, ptr %v, i64 8
  store ptr %_10.1, ptr %1, align 8
  %2 = getelementptr inbounds i8, ptr %v, i64 16
  store i64 0, ptr %2, align 8
  %3 = getelementptr inbounds i8, ptr %v, i64 8
  %self = load ptr, ptr %3, align 8
  br label %bb2

bb2:                                              ; preds = %start
; call core::intrinsics::copy_nonoverlapping::precondition_check
  call void @_ZN4core10intrinsics19copy_nonoverlapping18precondition_check17hfe4e8ac8acf289a3E(ptr %s.0, ptr %self, i64 1, i64 1, i64 %s.1) #14
  br label %bb4

bb4:                                              ; preds = %bb2
  %4 = mul i64 %s.1, 1
  call void @llvm.memcpy.p0.p0.i64(ptr align 1 %self, ptr align 1 %s.0, i64 %4, i1 false)
  %5 = getelementptr inbounds i8, ptr %v, i64 16
  store i64 %s.1, ptr %5, align 8
  call void @llvm.memcpy.p0.p0.i64(ptr align 8 %_0, ptr align 8 %v, i64 24, i1 false)
  ret void
}

; alloc::fmt::format
; Function Attrs: inlinehint nonlazybind uwtable
define internal void @_ZN5alloc3fmt6format17h36b400209298098cE(ptr sret([24 x i8]) align 8 %_0, ptr align 8 %args) unnamed_addr #2 {
start:
  %_2 = alloca [16 x i8], align 8
  %_6.0 = load ptr, ptr %args, align 8
  %0 = getelementptr inbounds i8, ptr %args, i64 8
  %_6.1 = load i64, ptr %0, align 8
  %1 = getelementptr inbounds i8, ptr %args, i64 16
  %_7.0 = load ptr, ptr %1, align 8
  %2 = getelementptr inbounds i8, ptr %1, i64 8
  %_7.1 = load i64, ptr %2, align 8
  %3 = icmp eq i64 %_6.1, 0
  br i1 %3, label %bb4, label %bb5

bb4:                                              ; preds = %start
  %4 = icmp eq i64 %_7.1, 0
  br i1 %4, label %bb8, label %bb3

bb5:                                              ; preds = %start
  %5 = icmp eq i64 %_6.1, 1
  br i1 %5, label %bb6, label %bb3

bb8:                                              ; preds = %bb4
  store ptr inttoptr (i64 1 to ptr), ptr %_2, align 8
  %6 = getelementptr inbounds i8, ptr %_2, i64 8
  store i64 0, ptr %6, align 8
  br label %bb2

bb3:                                              ; preds = %bb6, %bb5, %bb4
  %7 = load ptr, ptr @0, align 8
  %8 = load i64, ptr getelementptr inbounds (i8, ptr @0, i64 8), align 8
  store ptr %7, ptr %_2, align 8
  %9 = getelementptr inbounds i8, ptr %_2, i64 8
  store i64 %8, ptr %9, align 8
  br label %bb2

bb2:                                              ; preds = %bb3, %bb7, %bb8
  %10 = load ptr, ptr %_2, align 8
  %11 = getelementptr inbounds i8, ptr %_2, i64 8
  %12 = load i64, ptr %11, align 8
; call core::option::Option<T>::map_or_else
  call void @"_ZN4core6option15Option$LT$T$GT$11map_or_else17hc699dc35bee5d79dE"(ptr sret([24 x i8]) align 8 %_0, ptr align 1 %10, i64 %12, ptr align 8 %args)
  ret void

bb6:                                              ; preds = %bb5
  %13 = icmp eq i64 %_7.1, 0
  br i1 %13, label %bb7, label %bb3

bb7:                                              ; preds = %bb6
  %s = getelementptr inbounds [0 x { ptr, i64 }], ptr %_6.0, i64 0, i64 0
  %14 = getelementptr inbounds [0 x { ptr, i64 }], ptr %_6.0, i64 0, i64 0
  %_12.0 = load ptr, ptr %14, align 8
  %15 = getelementptr inbounds i8, ptr %14, i64 8
  %_12.1 = load i64, ptr %15, align 8
  store ptr %_12.0, ptr %_2, align 8
  %16 = getelementptr inbounds i8, ptr %_2, i64 8
  store i64 %_12.1, ptr %16, align 8
  br label %bb2
}

; alloc::fmt::format::{{closure}}
; Function Attrs: inlinehint nonlazybind uwtable
define void @"_ZN5alloc3fmt6format28_$u7b$$u7b$closure$u7d$$u7d$17h12cb662864a68117E"(ptr sret([24 x i8]) align 8 %_0, ptr align 8 %_1) unnamed_addr #2 {
start:
  %_2 = alloca [48 x i8], align 8
  call void @llvm.memcpy.p0.p0.i64(ptr align 8 %_2, ptr align 8 %_1, i64 48, i1 false)
; call alloc::fmt::format::format_inner
  call void @_ZN5alloc3fmt6format12format_inner17h8340a7f817b89373E(ptr sret([24 x i8]) align 8 %_0, ptr align 8 %_2)
  ret void
}

; alloc::str::<impl alloc::borrow::ToOwned for str>::to_owned
; Function Attrs: inlinehint nonlazybind uwtable
define internal void @"_ZN5alloc3str56_$LT$impl$u20$alloc..borrow..ToOwned$u20$for$u20$str$GT$8to_owned17h792a83d64f5a681aE"(ptr sret([24 x i8]) align 8 %_0, ptr align 1 %self.0, i64 %self.1) unnamed_addr #2 {
start:
  %bytes = alloca [24 x i8], align 8
; call <T as alloc::slice::hack::ConvertVec>::to_vec
  call void @"_ZN52_$LT$T$u20$as$u20$alloc..slice..hack..ConvertVec$GT$6to_vec17h5dcc0e16973d3f70E"(ptr sret([24 x i8]) align 8 %bytes, ptr align 1 %self.0, i64 %self.1)
  call void @llvm.memcpy.p0.p0.i64(ptr align 8 %_0, ptr align 8 %bytes, i64 24, i1 false)
  ret void
}

; alloc::raw_vec::RawVecInner<A>::with_capacity_in
; Function Attrs: inlinehint nonlazybind uwtable
define { i64, ptr } @"_ZN5alloc7raw_vec20RawVecInner$LT$A$GT$16with_capacity_in17h69f003aa55d182f7E"(i64 %capacity, i64 %elem_layout.0, i64 %elem_layout.1) unnamed_addr #2 {
start:
  %self = alloca [8 x i8], align 8
  %elem_layout = alloca [16 x i8], align 8
  %this = alloca [16 x i8], align 8
  %_4 = alloca [24 x i8], align 8
; call alloc::raw_vec::RawVecInner<A>::try_allocate_in
  call void @"_ZN5alloc7raw_vec20RawVecInner$LT$A$GT$15try_allocate_in17hfa9b309c0053cc89E"(ptr sret([24 x i8]) align 8 %_4, i64 %capacity, i1 zeroext false, i64 %elem_layout.0, i64 %elem_layout.1)
  %_5 = load i64, ptr %_4, align 8
  %0 = icmp eq i64 %_5, 0
  br i1 %0, label %bb4, label %bb3

bb4:                                              ; preds = %start
  %1 = getelementptr inbounds i8, ptr %_4, i64 8
  %2 = load i64, ptr %1, align 8
  %3 = getelementptr inbounds i8, ptr %1, i64 8
  %4 = load ptr, ptr %3, align 8
  store i64 %2, ptr %this, align 8
  %5 = getelementptr inbounds i8, ptr %this, i64 8
  store ptr %4, ptr %5, align 8
  store i64 %elem_layout.0, ptr %elem_layout, align 8
  %6 = getelementptr inbounds i8, ptr %elem_layout, i64 8
  store i64 %elem_layout.1, ptr %6, align 8
  %7 = icmp eq i64 %elem_layout.1, 0
  br i1 %7, label %bb6, label %bb7

bb3:                                              ; preds = %start
  %8 = getelementptr inbounds i8, ptr %_4, i64 8
  %err.0 = load i64, ptr %8, align 8
  %9 = getelementptr inbounds i8, ptr %8, i64 8
  %err.1 = load i64, ptr %9, align 8
; call alloc::raw_vec::handle_error
  call void @_ZN5alloc7raw_vec12handle_error17h082aba6c36a25221E(i64 %err.0, i64 %err.1) #10
  unreachable

bb6:                                              ; preds = %bb4
  store i64 -1, ptr %self, align 8
  br label %bb5

bb7:                                              ; preds = %bb4
  %10 = load i64, ptr %this, align 8
  store i64 %10, ptr %self, align 8
  br label %bb5

bb5:                                              ; preds = %bb7, %bb6
  %11 = load i64, ptr %self, align 8
  %_13 = sub i64 %11, 0
  %_8 = icmp ugt i64 %capacity, %_13
  %cond = xor i1 %_8, true
  br label %bb8

bb8:                                              ; preds = %bb5
; call core::hint::assert_unchecked::precondition_check
  call void @_ZN4core4hint16assert_unchecked18precondition_check17h46f0938084ff0b9fE(i1 zeroext %cond) #14
  br label %bb9

bb9:                                              ; preds = %bb8
  %_0.0 = load i64, ptr %this, align 8
  %12 = getelementptr inbounds i8, ptr %this, i64 8
  %_0.1 = load ptr, ptr %12, align 8
  %13 = insertvalue { i64, ptr } poison, i64 %_0.0, 0
  %14 = insertvalue { i64, ptr } %13, ptr %_0.1, 1
  ret { i64, ptr } %14

bb2:                                              ; No predecessors!
  unreachable
}

; autocfg_d595f63604eb00ad_1::probe
; Function Attrs: nonlazybind uwtable
define void @_ZN26autocfg_d595f63604eb00ad_15probe17hc0ccbb9d8f295587E() unnamed_addr #3 {
start:
  %_3.i = alloca [16 x i8], align 8
  %_7 = alloca [16 x i8], align 8
  %_6 = alloca [16 x i8], align 8
  %_3 = alloca [48 x i8], align 8
  %res = alloca [24 x i8], align 8
  %_1 = alloca [24 x i8], align 8
  store ptr @alloc_53973d2fe29b4adba8bb7390b5678745, ptr %_3.i, align 8
  %0 = getelementptr inbounds i8, ptr %_3.i, i64 8
  store ptr @"_ZN4core3fmt3num3imp55_$LT$impl$u20$core..fmt..LowerExp$u20$for$u20$isize$GT$3fmt17ha19e2a6751d6ffb4E", ptr %0, align 8
  call void @llvm.memcpy.p0.p0.i64(ptr align 8 %_7, ptr align 8 %_3.i, i64 16, i1 false)
  %1 = getelementptr inbounds [1 x %"core::fmt::rt::Argument<'_>"], ptr %_6, i64 0, i64 0
  call void @llvm.memcpy.p0.p0.i64(ptr align 8 %1, ptr align 8 %_7, i64 16, i1 false)
; call core::fmt::Arguments::new_v1
  call void @_ZN4core3fmt9Arguments6new_v117hd27ef3fed51de1fcE(ptr sret([48 x i8]) align 8 %_3, ptr align 8 @alloc_eab5d04767146d7d9b93b60d28ef530a, ptr align 8 %_6)
; call alloc::fmt::format
  call void @_ZN5alloc3fmt6format17h36b400209298098cE(ptr sret([24 x i8]) align 8 %res, ptr align 8 %_3)
  call void @llvm.memcpy.p0.p0.i64(ptr align 8 %_1, ptr align 8 %res, i64 24, i1 false)
; call core::ptr::drop_in_place<alloc::string::String>
  call void @"_ZN4core3ptr42drop_in_place$LT$alloc..string..String$GT$17h01fe31b560b6a4caE"(ptr align 8 %_1)
  ret void
}

; Function Attrs: nounwind nonlazybind uwtable
declare i32 @rust_eh_personality(i32, i32, i64, ptr, ptr) unnamed_addr #1

; Function Attrs: nocallback nofree nosync nounwind speculatable willreturn memory(none)
declare i64 @llvm.ctpop.i64(i64) #4

; core::panicking::panic_cannot_unwind
; Function Attrs: cold minsize noinline noreturn nounwind nonlazybind optsize uwtable
declare void @_ZN4core9panicking19panic_cannot_unwind17h65aefd062253eb19E() unnamed_addr #5

; core::panicking::panic_nounwind
; Function Attrs: cold noinline noreturn nounwind nonlazybind uwtable
declare void @_ZN4core9panicking14panic_nounwind17hd0dad372654c389aE(ptr align 1, i64) unnamed_addr #6

; core::panicking::panic_fmt
; Function Attrs: cold noinline noreturn nonlazybind uwtable
declare void @_ZN4core9panicking9panic_fmt17h0c3082644d1bf418E(ptr align 8, ptr align 8) unnamed_addr #7

; core::fmt::num::imp::<impl core::fmt::LowerExp for isize>::fmt
; Function Attrs: nonlazybind uwtable
declare zeroext i1 @"_ZN4core3fmt3num3imp55_$LT$impl$u20$core..fmt..LowerExp$u20$for$u20$isize$GT$3fmt17ha19e2a6751d6ffb4E"(ptr align 8, ptr align 8) unnamed_addr #3

; Function Attrs: nocallback nofree nounwind willreturn memory(argmem: readwrite)
declare void @llvm.memcpy.p0.p0.i64(ptr noalias nocapture writeonly, ptr noalias nocapture readonly, i64, i1 immarg) #8

; <alloc::vec::Vec<T,A> as core::ops::drop::Drop>::drop
; Function Attrs: nonlazybind uwtable
declare void @"_ZN70_$LT$alloc..vec..Vec$LT$T$C$A$GT$$u20$as$u20$core..ops..drop..Drop$GT$4drop17hb8c2272cd6624092E"(ptr align 8) unnamed_addr #3

; core::panicking::panic_in_cleanup
; Function Attrs: cold minsize noinline noreturn nounwind nonlazybind optsize uwtable
declare void @_ZN4core9panicking16panic_in_cleanup17hddc1b09eaad4daa3E() unnamed_addr #5

; <alloc::raw_vec::RawVec<T,A> as core::ops::drop::Drop>::drop
; Function Attrs: nonlazybind uwtable
declare void @"_ZN77_$LT$alloc..raw_vec..RawVec$LT$T$C$A$GT$$u20$as$u20$core..ops..drop..Drop$GT$4drop17h077ee2decf6fd162E"(ptr align 8) unnamed_addr #3

; Function Attrs: nocallback nofree nosync nounwind speculatable willreturn memory(none)
declare { i64, i1 } @llvm.umul.with.overflow.i64(i64, i64) #4

; alloc::fmt::format::format_inner
; Function Attrs: nonlazybind uwtable
declare void @_ZN5alloc3fmt6format12format_inner17h8340a7f817b89373E(ptr sret([24 x i8]) align 8, ptr align 8) unnamed_addr #3

; alloc::raw_vec::RawVecInner<A>::try_allocate_in
; Function Attrs: nonlazybind uwtable
declare void @"_ZN5alloc7raw_vec20RawVecInner$LT$A$GT$15try_allocate_in17hfa9b309c0053cc89E"(ptr sret([24 x i8]) align 8, i64, i1 zeroext, i64, i64) unnamed_addr #3

; alloc::raw_vec::handle_error
; Function Attrs: cold minsize noreturn nonlazybind optsize uwtable
declare void @_ZN5alloc7raw_vec12handle_error17h082aba6c36a25221E(i64, i64) unnamed_addr #9

attributes #0 = { inlinehint nounwind nonlazybind uwtable "probe-stack"="inline-asm" "target-cpu"="x86-64" }
attributes #1 = { nounwind nonlazybind uwtable "probe-stack"="inline-asm" "target-cpu"="x86-64" }
attributes #2 = { inlinehint nonlazybind uwtable "probe-stack"="inline-asm" "target-cpu"="x86-64" }
attributes #3 = { nonlazybind uwtable "probe-stack"="inline-asm" "target-cpu"="x86-64" }
attributes #4 = { nocallback nofree nosync nounwind speculatable willreturn memory(none) }
attributes #5 = { cold minsize noinline noreturn nounwind nonlazybind optsize uwtable "probe-stack"="inline-asm" "target-cpu"="x86-64" }
attributes #6 = { cold noinline noreturn nounwind nonlazybind uwtable "probe-stack"="inline-asm" "target-cpu"="x86-64" }
attributes #7 = { cold noinline noreturn nonlazybind uwtable "probe-stack"="inline-asm" "target-cpu"="x86-64" }
attributes #8 = { nocallback nofree nounwind willreturn memory(argmem: readwrite) }
attributes #9 = { cold minsize noreturn nonlazybind optsize uwtable "probe-stack"="inline-asm" "target-cpu"="x86-64" }
attributes #10 = { noreturn }
attributes #11 = { noreturn nounwind }
attributes #12 = { cold noreturn nounwind }
attributes #13 = { cold }
attributes #14 = { nounwind }

!llvm.module.flags = !{!0, !1}
!llvm.ident = !{!2}

!0 = !{i32 8, !"PIC Level", i32 2}
!1 = !{i32 2, !"RtLibUseGOT", i32 1}
!2 = !{!"rustc version 1.83.0 (90b35a623 2024-11-26)"}
